target datalayout = "e-m:e-p270:32:32-p271:32:32-p272:64:64-i64:64-i128:128-f80:128-n8:16:32:64-S128"
target triple = "x86_64-pc-linux-gnu"

; Function Attrs: alwaysinline nounwind willreturn memory(none) uwtable
define internal zeroext i8 @av_clip_uint8_c(i32 noundef %0) #5 {
  %2 = alloca i8, align 1
  %3 = alloca i32, align 4
  store i32 %0, ptr %3, align 4, !tbaa !31
  %4 = load i32, ptr %3, align 4, !tbaa !31
  %5 = and i32 %4, -256
  %6 = icmp ne i32 %5, 0
  br i1 %6, label %7, label %12

7:                                                ; preds = %1
  %8 = load i32, ptr %3, align 4, !tbaa !31
  %9 = xor i32 %8, -1
  %10 = ashr i32 %9, 31
  %11 = trunc i32 %10 to i8
  store i8 %11, ptr %2, align 1
  br label %15

12:                                               ; preds = %1
  %13 = load i32, ptr %3, align 4, !tbaa !31
  %14 = trunc i32 %13 to i8
  store i8 %14, ptr %2, align 1
  br label %15

15:                                               ; preds = %12, %7
  %16 = load i8, ptr %2, align 1
  ret i8 %16
}

; Function Attrs: nounwind uwtable
define internal void @svq3_add_idct_c(ptr noundef %0, ptr noundef %1, i32 noundef %2, i32 noundef %3, i32 noundef %4) #1 {
  %6 = alloca ptr, align 8
  %7 = alloca ptr, align 8
  %8 = alloca i32, align 4
  %9 = alloca i32, align 4
  %10 = alloca i32, align 4
  %11 = alloca i32, align 4
  %12 = alloca i32, align 4
  %13 = alloca i32, align 4
  %14 = alloca i32, align 4
  %15 = alloca i32, align 4
  %16 = alloca i32, align 4
  %17 = alloca i32, align 4
  %18 = alloca i32, align 4
  %19 = alloca i32, align 4
  %20 = alloca i32, align 4
  %21 = alloca i32, align 4
  store ptr %0, ptr %6, align 8, !tbaa !55
  store ptr %1, ptr %7, align 8, !tbaa !133
  store i32 %2, ptr %8, align 4, !tbaa !31
  store i32 %3, ptr %9, align 4, !tbaa !31
  store i32 %4, ptr %10, align 4, !tbaa !31
  call void @llvm.lifetime.start.p0(i64 4, ptr %11) #11
  %22 = load i32, ptr %9, align 4, !tbaa !31
  %23 = sext i32 %22 to i64
  %24 = getelementptr inbounds [32 x i32], ptr @svq3_dequant_coeff, i64 0, i64 %23
  %25 = load i32, ptr %24, align 4, !tbaa !31
  store i32 %25, ptr %11, align 4, !tbaa !31
  call void @llvm.lifetime.start.p0(i64 4, ptr %12) #11
  %26 = load i32, ptr %10, align 4, !tbaa !31
  %27 = icmp ne i32 %26, 0
  br i1 %27, label %28, label %51

28:                                               ; preds = %5
  %29 = load i32, ptr %10, align 4, !tbaa !31
  %30 = icmp eq i32 %29, 1
  br i1 %30, label %31, label %37

31:                                               ; preds = %28
  %32 = load ptr, ptr %7, align 8, !tbaa !133
  %33 = getelementptr inbounds i16, ptr %32, i64 0
  %34 = load i16, ptr %33, align 2, !tbaa !126
  %35 = sext i16 %34 to i32
  %36 = mul i32 1538, %35
  br label %46

37:                                               ; preds = %28
  %38 = load i32, ptr %11, align 4, !tbaa !31
  %39 = load ptr, ptr %7, align 8, !tbaa !133
  %40 = getelementptr inbounds i16, ptr %39, i64 0
  %41 = load i16, ptr %40, align 2, !tbaa !126
  %42 = sext i16 %41 to i32
  %43 = ashr i32 %42, 3
  %44 = mul nsw i32 %38, %43
  %45 = sdiv i32 %44, 2
  br label %46

46:                                               ; preds = %37, %31
  %47 = phi i32 [ %36, %31 ], [ %45, %37 ]
  %48 = mul i32 169, %47
  store i32 %48, ptr %10, align 4, !tbaa !31
  %49 = load ptr, ptr %7, align 8, !tbaa !133
  %50 = getelementptr inbounds i16, ptr %49, i64 0
  store i16 0, ptr %50, align 2, !tbaa !126
  br label %51

51:                                               ; preds = %46, %5
  store i32 0, ptr %12, align 4, !tbaa !31
  br label %52

52:                                               ; preds = %170, %51
  %53 = load i32, ptr %12, align 4, !tbaa !31
  %54 = icmp slt i32 %53, 4
  br i1 %54, label %55, label %173

55:                                               ; preds = %52
  call void @llvm.lifetime.start.p0(i64 4, ptr %13) #11
  %56 = load ptr, ptr %7, align 8, !tbaa !133
  %57 = load i32, ptr %12, align 4, !tbaa !31
  %58 = mul nsw i32 4, %57
  %59 = add nsw i32 0, %58
  %60 = sext i32 %59 to i64
  %61 = getelementptr inbounds i16, ptr %56, i64 %60
  %62 = load i16, ptr %61, align 2, !tbaa !126
  %63 = sext i16 %62 to i32
  %64 = load ptr, ptr %7, align 8, !tbaa !133
  %65 = load i32, ptr %12, align 4, !tbaa !31
  %66 = mul nsw i32 4, %65
  %67 = add nsw i32 2, %66
  %68 = sext i32 %67 to i64
  %69 = getelementptr inbounds i16, ptr %64, i64 %68
  %70 = load i16, ptr %69, align 2, !tbaa !126
  %71 = sext i16 %70 to i32
  %72 = add nsw i32 %63, %71
  %73 = mul nsw i32 13, %72
  store i32 %73, ptr %13, align 4, !tbaa !31
  call void @llvm.lifetime.start.p0(i64 4, ptr %14) #11
  %74 = load ptr, ptr %7, align 8, !tbaa !133
  %75 = load i32, ptr %12, align 4, !tbaa !31
  %76 = mul nsw i32 4, %75
  %77 = add nsw i32 0, %76
  %78 = sext i32 %77 to i64
  %79 = getelementptr inbounds i16, ptr %74, i64 %78
  %80 = load i16, ptr %79, align 2, !tbaa !126
  %81 = sext i16 %80 to i32
  %82 = load ptr, ptr %7, align 8, !tbaa !133
  %83 = load i32, ptr %12, align 4, !tbaa !31
  %84 = mul nsw i32 4, %83
  %85 = add nsw i32 2, %84
  %86 = sext i32 %85 to i64
  %87 = getelementptr inbounds i16, ptr %82, i64 %86
  %88 = load i16, ptr %87, align 2, !tbaa !126
  %89 = sext i16 %88 to i32
  %90 = sub nsw i32 %81, %89
  %91 = mul nsw i32 13, %90
  store i32 %91, ptr %14, align 4, !tbaa !31
  call void @llvm.lifetime.start.p0(i64 4, ptr %15) #11
  %92 = load ptr, ptr %7, align 8, !tbaa !133
  %93 = load i32, ptr %12, align 4, !tbaa !31
  %94 = mul nsw i32 4, %93
  %95 = add nsw i32 1, %94
  %96 = sext i32 %95 to i64
  %97 = getelementptr inbounds i16, ptr %92, i64 %96
  %98 = load i16, ptr %97, align 2, !tbaa !126
  %99 = sext i16 %98 to i32
  %100 = mul nsw i32 7, %99
  %101 = load ptr, ptr %7, align 8, !tbaa !133
  %102 = load i32, ptr %12, align 4, !tbaa !31
  %103 = mul nsw i32 4, %102
  %104 = add nsw i32 3, %103
  %105 = sext i32 %104 to i64
  %106 = getelementptr inbounds i16, ptr %101, i64 %105
  %107 = load i16, ptr %106, align 2, !tbaa !126
  %108 = sext i16 %107 to i32
  %109 = mul nsw i32 17, %108
  %110 = sub nsw i32 %100, %109
  store i32 %110, ptr %15, align 4, !tbaa !31
  call void @llvm.lifetime.start.p0(i64 4, ptr %16) #11
  %111 = load ptr, ptr %7, align 8, !tbaa !133
  %112 = load i32, ptr %12, align 4, !tbaa !31
  %113 = mul nsw i32 4, %112
  %114 = add nsw i32 1, %113
  %115 = sext i32 %114 to i64
  %116 = getelementptr inbounds i16, ptr %111, i64 %115
  %117 = load i16, ptr %116, align 2, !tbaa !126
  %118 = sext i16 %117 to i32
  %119 = mul nsw i32 17, %118
  %120 = load ptr, ptr %7, align 8, !tbaa !133
  %121 = load i32, ptr %12, align 4, !tbaa !31
  %122 = mul nsw i32 4, %121
  %123 = add nsw i32 3, %122
  %124 = sext i32 %123 to i64
  %125 = getelementptr inbounds i16, ptr %120, i64 %124
  %126 = load i16, ptr %125, align 2, !tbaa !126
  %127 = sext i16 %126 to i32
  %128 = mul nsw i32 7, %127
  %129 = add nsw i32 %119, %128
  store i32 %129, ptr %16, align 4, !tbaa !31
  %130 = load i32, ptr %13, align 4, !tbaa !31
  %131 = load i32, ptr %16, align 4, !tbaa !31
  %132 = add nsw i32 %130, %131
  %133 = trunc i32 %132 to i16
  %134 = load ptr, ptr %7, align 8, !tbaa !133
  %135 = load i32, ptr %12, align 4, !tbaa !31
  %136 = mul nsw i32 4, %135
  %137 = add nsw i32 0, %136
  %138 = sext i32 %137 to i64
  %139 = getelementptr inbounds i16, ptr %134, i64 %138
  store i16 %133, ptr %139, align 2, !tbaa !126
  %140 = load i32, ptr %14, align 4, !tbaa !31
  %141 = load i32, ptr %15, align 4, !tbaa !31
  %142 = add nsw i32 %140, %141
  %143 = trunc i32 %142 to i16
  %144 = load ptr, ptr %7, align 8, !tbaa !133
  %145 = load i32, ptr %12, align 4, !tbaa !31
  %146 = mul nsw i32 4, %145
  %147 = add nsw i32 1, %146
  %148 = sext i32 %147 to i64
  %149 = getelementptr inbounds i16, ptr %144, i64 %148
  store i16 %143, ptr %149, align 2, !tbaa !126
  %150 = load i32, ptr %14, align 4, !tbaa !31
  %151 = load i32, ptr %15, align 4, !tbaa !31
  %152 = sub nsw i32 %150, %151
  %153 = trunc i32 %152 to i16
  %154 = load ptr, ptr %7, align 8, !tbaa !133
  %155 = load i32, ptr %12, align 4, !tbaa !31
  %156 = mul nsw i32 4, %155
  %157 = add nsw i32 2, %156
  %158 = sext i32 %157 to i64
  %159 = getelementptr inbounds i16, ptr %154, i64 %158
  store i16 %153, ptr %159, align 2, !tbaa !126
  %160 = load i32, ptr %13, align 4, !tbaa !31
  %161 = load i32, ptr %16, align 4, !tbaa !31
  %162 = sub nsw i32 %160, %161
  %163 = trunc i32 %162 to i16
  %164 = load ptr, ptr %7, align 8, !tbaa !133
  %165 = load i32, ptr %12, align 4, !tbaa !31
  %166 = mul nsw i32 4, %165
  %167 = add nsw i32 3, %166
  %168 = sext i32 %167 to i64
  %169 = getelementptr inbounds i16, ptr %164, i64 %168
  store i16 %163, ptr %169, align 2, !tbaa !126
  call void @llvm.lifetime.end.p0(i64 4, ptr %16) #11
  call void @llvm.lifetime.end.p0(i64 4, ptr %15) #11
  call void @llvm.lifetime.end.p0(i64 4, ptr %14) #11
  call void @llvm.lifetime.end.p0(i64 4, ptr %13) #11
  br label %170

170:                                              ; preds = %55
  %171 = load i32, ptr %12, align 4, !tbaa !31
  %172 = add nsw i32 %171, 1
  store i32 %172, ptr %12, align 4, !tbaa !31
  br label %52, !llvm.loop !180

173:                                              ; preds = %52
  store i32 0, ptr %12, align 4, !tbaa !31
  br label %174

174:                                              ; preds = %350, %173
  %175 = load i32, ptr %12, align 4, !tbaa !31
  %176 = icmp slt i32 %175, 4
  br i1 %176, label %177, label %353

177:                                              ; preds = %174
  call void @llvm.lifetime.start.p0(i64 4, ptr %17) #11
  %178 = load ptr, ptr %7, align 8, !tbaa !133
  %179 = load i32, ptr %12, align 4, !tbaa !31
  %180 = add nsw i32 %179, 0
  %181 = sext i32 %180 to i64
  %182 = getelementptr inbounds i16, ptr %178, i64 %181
  %183 = load i16, ptr %182, align 2, !tbaa !126
  %184 = sext i16 %183 to i32
  %185 = load ptr, ptr %7, align 8, !tbaa !133
  %186 = load i32, ptr %12, align 4, !tbaa !31
  %187 = add nsw i32 %186, 8
  %188 = sext i32 %187 to i64
  %189 = getelementptr inbounds i16, ptr %185, i64 %188
  %190 = load i16, ptr %189, align 2, !tbaa !126
  %191 = sext i16 %190 to i32
  %192 = add nsw i32 %184, %191
  %193 = mul nsw i32 13, %192
  store i32 %193, ptr %17, align 4, !tbaa !31
  call void @llvm.lifetime.start.p0(i64 4, ptr %18) #11
  %194 = load ptr, ptr %7, align 8, !tbaa !133
  %195 = load i32, ptr %12, align 4, !tbaa !31
  %196 = add nsw i32 %195, 0
  %197 = sext i32 %196 to i64
  %198 = getelementptr inbounds i16, ptr %194, i64 %197
  %199 = load i16, ptr %198, align 2, !tbaa !126
  %200 = sext i16 %199 to i32
  %201 = load ptr, ptr %7, align 8, !tbaa !133
  %202 = load i32, ptr %12, align 4, !tbaa !31
  %203 = add nsw i32 %202, 8
  %204 = sext i32 %203 to i64
  %205 = getelementptr inbounds i16, ptr %201, i64 %204
  %206 = load i16, ptr %205, align 2, !tbaa !126
  %207 = sext i16 %206 to i32
  %208 = sub nsw i32 %200, %207
  %209 = mul nsw i32 13, %208
  store i32 %209, ptr %18, align 4, !tbaa !31
  call void @llvm.lifetime.start.p0(i64 4, ptr %19) #11
  %210 = load ptr, ptr %7, align 8, !tbaa !133
  %211 = load i32, ptr %12, align 4, !tbaa !31
  %212 = add nsw i32 %211, 4
  %213 = sext i32 %212 to i64
  %214 = getelementptr inbounds i16, ptr %210, i64 %213
  %215 = load i16, ptr %214, align 2, !tbaa !126
  %216 = sext i16 %215 to i32
  %217 = mul nsw i32 7, %216
  %218 = load ptr, ptr %7, align 8, !tbaa !133
  %219 = load i32, ptr %12, align 4, !tbaa !31
  %220 = add nsw i32 %219, 12
  %221 = sext i32 %220 to i64
  %222 = getelementptr inbounds i16, ptr %218, i64 %221
  %223 = load i16, ptr %222, align 2, !tbaa !126
  %224 = sext i16 %223 to i32
  %225 = mul nsw i32 17, %224
  %226 = sub nsw i32 %217, %225
  store i32 %226, ptr %19, align 4, !tbaa !31
  call void @llvm.lifetime.start.p0(i64 4, ptr %20) #11
  %227 = load ptr, ptr %7, align 8, !tbaa !133
  %228 = load i32, ptr %12, align 4, !tbaa !31
  %229 = add nsw i32 %228, 4
  %230 = sext i32 %229 to i64
  %231 = getelementptr inbounds i16, ptr %227, i64 %230
  %232 = load i16, ptr %231, align 2, !tbaa !126
  %233 = sext i16 %232 to i32
  %234 = mul nsw i32 17, %233
  %235 = load ptr, ptr %7, align 8, !tbaa !133
  %236 = load i32, ptr %12, align 4, !tbaa !31
  %237 = add nsw i32 %236, 12
  %238 = sext i32 %237 to i64
  %239 = getelementptr inbounds i16, ptr %235, i64 %238
  %240 = load i16, ptr %239, align 2, !tbaa !126
  %241 = sext i16 %240 to i32
  %242 = mul nsw i32 7, %241
  %243 = add nsw i32 %234, %242
  store i32 %243, ptr %20, align 4, !tbaa !31
  call void @llvm.lifetime.start.p0(i64 4, ptr %21) #11
  %244 = load i32, ptr %10, align 4, !tbaa !31
  %245 = add i32 %244, 524288
  store i32 %245, ptr %21, align 4, !tbaa !31
  %246 = load ptr, ptr %6, align 8, !tbaa !55
  %247 = load i32, ptr %12, align 4, !tbaa !31
  %248 = load i32, ptr %8, align 4, !tbaa !31
  %249 = mul nsw i32 %248, 0
  %250 = add nsw i32 %247, %249
  %251 = sext i32 %250 to i64
  %252 = getelementptr inbounds i8, ptr %246, i64 %251
  %253 = load i8, ptr %252, align 1, !tbaa !59
  %254 = zext i8 %253 to i32
  %255 = load i32, ptr %17, align 4, !tbaa !31
  %256 = load i32, ptr %20, align 4, !tbaa !31
  %257 = add i32 %255, %256
  %258 = load i32, ptr %11, align 4, !tbaa !31
  %259 = mul i32 %257, %258
  %260 = load i32, ptr %21, align 4, !tbaa !31
  %261 = add i32 %259, %260
  %262 = ashr i32 %261, 20
  %263 = add nsw i32 %254, %262
  %264 = call zeroext i8 @av_clip_uint8_c(i32 noundef %263) #13
  %265 = load ptr, ptr %6, align 8, !tbaa !55
  %266 = load i32, ptr %12, align 4, !tbaa !31
  %267 = load i32, ptr %8, align 4, !tbaa !31
  %268 = mul nsw i32 %267, 0
  %269 = add nsw i32 %266, %268
  %270 = sext i32 %269 to i64
  %271 = getelementptr inbounds i8, ptr %265, i64 %270
  store i8 %264, ptr %271, align 1, !tbaa !59
  %272 = load ptr, ptr %6, align 8, !tbaa !55
  %273 = load i32, ptr %12, align 4, !tbaa !31
  %274 = load i32, ptr %8, align 4, !tbaa !31
  %275 = mul nsw i32 %274, 1
  %276 = add nsw i32 %273, %275
  %277 = sext i32 %276 to i64
  %278 = getelementptr inbounds i8, ptr %272, i64 %277
  %279 = load i8, ptr %278, align 1, !tbaa !59
  %280 = zext i8 %279 to i32
  %281 = load i32, ptr %18, align 4, !tbaa !31
  %282 = load i32, ptr %19, align 4, !tbaa !31
  %283 = add i32 %281, %282
  %284 = load i32, ptr %11, align 4, !tbaa !31
  %285 = mul i32 %283, %284
  %286 = load i32, ptr %21, align 4, !tbaa !31
  %287 = add i32 %285, %286
  %288 = ashr i32 %287, 20
  %289 = add nsw i32 %280, %288
  %290 = call zeroext i8 @av_clip_uint8_c(i32 noundef %289) #13
  %291 = load ptr, ptr %6, align 8, !tbaa !55
  %292 = load i32, ptr %12, align 4, !tbaa !31
  %293 = load i32, ptr %8, align 4, !tbaa !31
  %294 = mul nsw i32 %293, 1
  %295 = add nsw i32 %292, %294
  %296 = sext i32 %295 to i64
  %297 = getelementptr inbounds i8, ptr %291, i64 %296
  store i8 %290, ptr %297, align 1, !tbaa !59
  %298 = load ptr, ptr %6, align 8, !tbaa !55
  %299 = load i32, ptr %12, align 4, !tbaa !31
  %300 = load i32, ptr %8, align 4, !tbaa !31
  %301 = mul nsw i32 %300, 2
  %302 = add nsw i32 %299, %301
  %303 = sext i32 %302 to i64
  %304 = getelementptr inbounds i8, ptr %298, i64 %303
  %305 = load i8, ptr %304, align 1, !tbaa !59
  %306 = zext i8 %305 to i32
  %307 = load i32, ptr %18, align 4, !tbaa !31
  %308 = load i32, ptr %19, align 4, !tbaa !31
  %309 = sub i32 %307, %308
  %310 = load i32, ptr %11, align 4, !tbaa !31
  %311 = mul i32 %309, %310
  %312 = load i32, ptr %21, align 4, !tbaa !31
  %313 = add i32 %311, %312
  %314 = ashr i32 %313, 20
  %315 = add nsw i32 %306, %314
  %316 = call zeroext i8 @av_clip_uint8_c(i32 noundef %315) #13
  %317 = load ptr, ptr %6, align 8, !tbaa !55
  %318 = load i32, ptr %12, align 4, !tbaa !31
  %319 = load i32, ptr %8, align 4, !tbaa !31
  %320 = mul nsw i32 %319, 2
  %321 = add nsw i32 %318, %320
  %322 = sext i32 %321 to i64
  %323 = getelementptr inbounds i8, ptr %317, i64 %322
  store i8 %316, ptr %323, align 1, !tbaa !59
  %324 = load ptr, ptr %6, align 8, !tbaa !55
  %325 = load i32, ptr %12, align 4, !tbaa !31
  %326 = load i32, ptr %8, align 4, !tbaa !31
  %327 = mul nsw i32 %326, 3
  %328 = add nsw i32 %325, %327
  %329 = sext i32 %328 to i64
  %330 = getelementptr inbounds i8, ptr %324, i64 %329
  %331 = load i8, ptr %330, align 1, !tbaa !59
  %332 = zext i8 %331 to i32
  %333 = load i32, ptr %17, align 4, !tbaa !31
  %334 = load i32, ptr %20, align 4, !tbaa !31
  %335 = sub i32 %333, %334
  %336 = load i32, ptr %11, align 4, !tbaa !31
  %337 = mul i32 %335, %336
  %338 = load i32, ptr %21, align 4, !tbaa !31
  %339 = add i32 %337, %338
  %340 = ashr i32 %339, 20
  %341 = add nsw i32 %332, %340
  %342 = call zeroext i8 @av_clip_uint8_c(i32 noundef %341) #13
  %343 = load ptr, ptr %6, align 8, !tbaa !55
  %344 = load i32, ptr %12, align 4, !tbaa !31
  %345 = load i32, ptr %8, align 4, !tbaa !31
  %346 = mul nsw i32 %345, 3
  %347 = add nsw i32 %344, %346
  %348 = sext i32 %347 to i64
  %349 = getelementptr inbounds i8, ptr %343, i64 %348
  store i8 %342, ptr %349, align 1, !tbaa !59
  call void @llvm.lifetime.end.p0(i64 4, ptr %21) #11
  call void @llvm.lifetime.end.p0(i64 4, ptr %20) #11
  call void @llvm.lifetime.end.p0(i64 4, ptr %19) #11
  call void @llvm.lifetime.end.p0(i64 4, ptr %18) #11
  call void @llvm.lifetime.end.p0(i64 4, ptr %17) #11
  br label %350

350:                                              ; preds = %177
  %351 = load i32, ptr %12, align 4, !tbaa !31
  %352 = add nsw i32 %351, 1
  store i32 %352, ptr %12, align 4, !tbaa !31
  br label %174, !llvm.loop !181

353:                                              ; preds = %174
  %354 = load ptr, ptr %7, align 8, !tbaa !133
  call void @llvm.memset.p0.i64(ptr align 2 %354, i8 0, i64 32, i1 false)
  call void @llvm.lifetime.end.p0(i64 4, ptr %12) #11
  call void @llvm.lifetime.end.p0(i64 4, ptr %11) #11
  ret void
}