; Function Attrs: nofree norecurse nosync nounwind memory(argmem: readwrite) uwtable
define internal fastcc void @svq3_add_idct_c(ptr noundef captures(none) %0, ptr noundef captures(none) %1, i32 noundef %2, i32 noundef %3, i32 noundef range(i32 0, 3) %4) unnamed_addr #9 {
  %6 = sext i32 %3 to i64
  %7 = getelementptr inbounds [32 x i32], ptr @svq3_dequant_coeff, i64 0, i64 %6
  %8 = load i32, ptr %7, align 4, !tbaa !76
  switch i32 %4, label %13 [
    i32 0, label %23
    i32 1, label %9
  ]

9:                                                ; preds = %5
  %10 = load i16, ptr %1, align 2, !tbaa !141
  %11 = sext i16 %10 to i32
  %12 = mul nsw i32 %11, 1538
  br label %19

13:                                               ; preds = %5
  %14 = load i16, ptr %1, align 2, !tbaa !141
  %15 = ashr i16 %14, 3
  %16 = sext i16 %15 to i32
  %17 = mul nsw i32 %8, %16
  %18 = sdiv i32 %17, 2
  br label %19

19:                                               ; preds = %13, %9
  %20 = phi i32 [ %12, %9 ], [ %18, %13 ]
  %21 = mul i32 %20, 169
  store i16 0, ptr %1, align 2, !tbaa !141
  %22 = add i32 %21, 524288
  br label %23

23:                                               ; preds = %5, %19
  %.0 = phi i32 [ %22, %19 ], [ 524288, %5 ]
  br label %29

.preheader:                                       ; preds = %29
  %24 = shl nsw i32 %2, 1
  %25 = mul nsw i32 %2, 3
  %26 = sext i32 %2 to i64
  %27 = sext i32 %24 to i64
  %28 = sext i32 %25 to i64
  %invariant.gep = getelementptr i8, ptr %0, i64 %26
  %invariant.gep120 = getelementptr i8, ptr %0, i64 %27
  %invariant.gep122 = getelementptr i8, ptr %0, i64 %28
  br label %59

29:                                               ; preds = %23, %29
  %indvars.iv = phi i64 [ 0, %23 ], [ %indvars.iv.next, %29 ]
  %.idx = shl nuw nsw i64 %indvars.iv, 3
  %30 = getelementptr inbounds nuw i8, ptr %1, i64 %.idx
  %31 = load i16, ptr %30, align 2, !tbaa !141
  %32 = zext i16 %31 to i32
  %33 = getelementptr inbounds nuw i8, ptr %30, i64 4
  %34 = load i16, ptr %33, align 2, !tbaa !141
  %35 = zext i16 %34 to i32
  %36 = add nuw nsw i32 %35, %32
  %37 = mul nuw nsw i32 %36, 13
  %38 = sub nsw i32 %32, %35
  %39 = mul nsw i32 %38, 13
  %40 = getelementptr inbounds nuw i8, ptr %30, i64 2
  %41 = load i16, ptr %40, align 2, !tbaa !141
  %42 = zext i16 %41 to i32
  %43 = mul nuw nsw i32 %42, 7
  %44 = getelementptr inbounds nuw i8, ptr %30, i64 6
  %45 = load i16, ptr %44, align 2, !tbaa !141
  %46 = zext i16 %45 to i32
  %.neg103 = mul nsw i32 %46, -17
  %47 = add nsw i32 %.neg103, %43
  %48 = mul nuw nsw i32 %42, 17
  %49 = mul nuw nsw i32 %46, 7
  %50 = add nuw nsw i32 %49, %48
  %51 = add nuw nsw i32 %50, %37
  %52 = trunc i32 %51 to i16
  store i16 %52, ptr %30, align 2, !tbaa !141
  %53 = add nsw i32 %47, %39
  %54 = trunc i32 %53 to i16
  store i16 %54, ptr %40, align 2, !tbaa !141
  %55 = sub nsw i32 %39, %47
  %56 = trunc i32 %55 to i16
  store i16 %56, ptr %33, align 2, !tbaa !141
  %57 = sub nsw i32 %37, %50
  %58 = trunc i32 %57 to i16
  store i16 %58, ptr %44, align 2, !tbaa !141
  %indvars.iv.next = add nuw nsw i64 %indvars.iv, 1
  %exitcond.not = icmp eq i64 %indvars.iv.next, 4
  br i1 %exitcond.not, label %.preheader, label %29, !llvm.loop !146

59:                                               ; preds = %.preheader, %59
  %indvars.iv116 = phi i64 [ 0, %.preheader ], [ %indvars.iv.next117, %59 ]
  %60 = getelementptr inbounds nuw i16, ptr %1, i64 %indvars.iv116
  %61 = load i16, ptr %60, align 2, !tbaa !141
  %62 = sext i16 %61 to i32
  %63 = getelementptr inbounds nuw i8, ptr %60, i64 16
  %64 = load i16, ptr %63, align 2, !tbaa !141
  %65 = sext i16 %64 to i32
  %66 = add nsw i32 %65, %62
  %67 = mul nsw i32 %66, 13
  %68 = sub nsw i32 %62, %65
  %69 = mul nsw i32 %68, 13
  %70 = getelementptr inbounds nuw i8, ptr %60, i64 8
  %71 = load i16, ptr %70, align 2, !tbaa !141
  %72 = sext i16 %71 to i32
  %73 = mul nsw i32 %72, 7
  %74 = getelementptr inbounds nuw i8, ptr %60, i64 24
  %75 = load i16, ptr %74, align 2, !tbaa !141
  %76 = sext i16 %75 to i32
  %.neg = mul nsw i32 %76, -17
  %77 = add nsw i32 %.neg, %73
  %78 = mul nsw i32 %72, 17
  %79 = mul nsw i32 %76, 7
  %80 = add nsw i32 %79, %78
  %81 = getelementptr inbounds nuw i8, ptr %0, i64 %indvars.iv116
  %82 = load i8, ptr %81, align 1, !tbaa !54
  %83 = zext i8 %82 to i32
  %84 = add nsw i32 %80, %67
  %85 = mul i32 %84, %8
  %86 = add i32 %85, %.0
  %87 = ashr i32 %86, 20
  %88 = add nsw i32 %87, %83
  %.not.i = icmp ult i32 %88, 256
  %isnotneg.i = icmp sgt i32 %88, -1
  %89 = sext i1 %isnotneg.i to i8
  %90 = trunc nuw i32 %88 to i8
  %.0.i = select i1 %.not.i, i8 %90, i8 %89
  store i8 %.0.i, ptr %81, align 1, !tbaa !54
  %gep = getelementptr i8, ptr %invariant.gep, i64 %indvars.iv116
  %91 = load i8, ptr %gep, align 1, !tbaa !54
  %92 = zext i8 %91 to i32
  %93 = add nsw i32 %77, %69
  %94 = mul i32 %93, %8
  %95 = add i32 %94, %.0
  %96 = ashr i32 %95, 20
  %97 = add nsw i32 %96, %92
  %.not.i104 = icmp ult i32 %97, 256
  %isnotneg.i105 = icmp sgt i32 %97, -1
  %98 = sext i1 %isnotneg.i105 to i8
  %99 = trunc nuw i32 %97 to i8
  %.0.i106 = select i1 %.not.i104, i8 %99, i8 %98
  store i8 %.0.i106, ptr %gep, align 1, !tbaa !54
  %gep121 = getelementptr i8, ptr %invariant.gep120, i64 %indvars.iv116
  %100 = load i8, ptr %gep121, align 1, !tbaa !54
  %101 = zext i8 %100 to i32
  %102 = sub nsw i32 %69, %77
  %103 = mul i32 %102, %8
  %104 = add i32 %103, %.0
  %105 = ashr i32 %104, 20
  %106 = add nsw i32 %105, %101
  %.not.i107 = icmp ult i32 %106, 256
  %isnotneg.i108 = icmp sgt i32 %106, -1
  %107 = sext i1 %isnotneg.i108 to i8
  %108 = trunc nuw i32 %106 to i8
  %.0.i109 = select i1 %.not.i107, i8 %108, i8 %107
  store i8 %.0.i109, ptr %gep121, align 1, !tbaa !54
  %gep123 = getelementptr i8, ptr %invariant.gep122, i64 %indvars.iv116
  %109 = load i8, ptr %gep123, align 1, !tbaa !54
  %110 = zext i8 %109 to i32
  %111 = sub nsw i32 %67, %80
  %112 = mul i32 %111, %8
  %113 = add i32 %112, %.0
  %114 = ashr i32 %113, 20
  %115 = add nsw i32 %114, %110
  %.not.i110 = icmp ult i32 %115, 256
  %isnotneg.i111 = icmp sgt i32 %115, -1
  %116 = sext i1 %isnotneg.i111 to i8
  %117 = trunc nuw i32 %115 to i8
  %.0.i112 = select i1 %.not.i110, i8 %117, i8 %116
  store i8 %.0.i112, ptr %gep123, align 1, !tbaa !54
  %indvars.iv.next117 = add nuw nsw i64 %indvars.iv116, 1
  %exitcond119.not = icmp eq i64 %indvars.iv.next117, 4
  br i1 %exitcond119.not, label %118, label %59, !llvm.loop !147

118:                                              ; preds = %59
  tail call void @llvm.memset.p0.i64(ptr noundef nonnull align 2 dereferenceable(32) %1, i8 0, i64 32, i1 false)
  ret void
}